; Function Attrs: nounwind uwtable
define internal fastcc void @err_bad_arg(ptr noundef %0, ptr noundef %1, ptr noundef %2) unnamed_addr #0 {
  %4 = tail call ptr @strchrnul(ptr noundef %1, i32 noundef 58) #24
  %5 = load i32, ptr @git_gettext_enabled, align 4, !tbaa !4
  %.not4.i = icmp eq i32 %5, 0
  br i1 %.not4.i, label %_.exit, label %6

6:                                                ; preds = %3
  %7 = tail call ptr @dcgettext(ptr noundef null, ptr noundef nonnull @.str.81, i32 noundef 5) #23
  br label %_.exit

_.exit:                                           ; preds = %3, %6
  %.0.i = phi ptr [ %7, %6 ], [ @.str.81, %3 ]
  %8 = ptrtoint ptr %4 to i64
  %9 = ptrtoint ptr %1 to i64
  %10 = sub i64 %8, %9
  %11 = trunc i64 %10 to i32
  tail call void (ptr, ptr, ...) @strbuf_addf(ptr noundef %0, ptr noundef %.0.i, i32 noundef %11, ptr noundef %1, ptr noundef %2) #23
  ret void
}